target datalayout = "e-m:e-p270:32:32-p271:32:32-p272:64:64-i64:64-i128:128-f80:128-n8:16:32:64-S128"
target triple = "x86_64-pc-linux-gnu"

%struct.decContext = type { i32, i32, i32, i32, i32, i32, i8 }

; Function Attrs: nounwind uwtable
define dso_local ptr @decNumberTrim(ptr noundef %0) #0 {
  %2 = alloca ptr, align 8
  %3 = alloca i32, align 4
  %4 = alloca %struct.decContext, align 4
  store ptr %0, ptr %2, align 8, !tbaa !4
  call void @llvm.lifetime.start.p0(i64 4, ptr %3) #7
  call void @llvm.lifetime.start.p0(i64 28, ptr %4) #7
  %5 = call ptr @decContextDefault(ptr noundef %4, i32 noundef 0)
  %6 = load ptr, ptr %2, align 8, !tbaa !4
  %7 = call ptr @decTrim(ptr noundef %6, ptr noundef %4, i8 noundef zeroext 0, i8 noundef zeroext 1, ptr noundef %3)
  call void @llvm.lifetime.end.p0(i64 28, ptr %4) #7
  call void @llvm.lifetime.end.p0(i64 4, ptr %3) #7
  ret ptr %7
}