; Function Attrs: nounwind uwtable
define dso_local noundef ptr @decNumberTrim(ptr noundef returned %0) local_unnamed_addr #4 {
  %2 = alloca i32, align 4
  %3 = alloca %struct.decContext, align 4
  call void @llvm.lifetime.start.p0(i64 4, ptr nonnull %2) #18
  call void @llvm.lifetime.start.p0(i64 28, ptr nonnull %3) #18
  %4 = call ptr @decContextDefault(ptr noundef nonnull %3, i32 noundef 0) #18
  %5 = call fastcc ptr @decTrim(ptr noundef %0, ptr noundef nonnull %3, i8 noundef zeroext 0, i8 noundef zeroext 1, ptr noundef %2)
  call void @llvm.lifetime.end.p0(i64 28, ptr nonnull %3) #18
  call void @llvm.lifetime.end.p0(i64 4, ptr nonnull %2) #18
  ret ptr %0
}